target datalayout = "e-m:e-p270:32:32-p271:32:32-p272:64:64-i64:64-i128:128-f80:128-n8:16:32:64-S128"
target triple = "x86_64-pc-linux-gnu"

%struct.Fra_Cla_t_ = type { ptr, ptr, ptr, ptr, ptr, ptr, ptr, ptr, ptr, i32, i32, ptr, ptr, ptr, ptr }
%struct.Aig_Obj_t_ = type { %union.anon, ptr, ptr, i64, i32, i32, %union.anon.0 }
%union.anon = type { ptr }
%union.anon.0 = type { ptr }
%struct.Vec_Ptr_t_ = type { i32, i32, ptr }
%struct.Fra_Man_t_ = type { ptr, ptr, ptr, i32, ptr, i32, ptr, ptr, ptr, i32, ptr, ptr, ptr, ptr, i32, ptr, i64, i64, ptr, ptr, i32, ptr, i32, i32, i32, i32, i32, i32, i32, i32, i32, i32, i32, i32, i32, i32, i32, i32, i32, i32, i32, i64, i64, i64, i64, i64, i64, i64, i64, i64, i64, i64 }

; Function Attrs: inlinehint nounwind uwtable
define internal void @Fra_ClassObjSetRepr(ptr noundef %0, ptr noundef %1) #4 {
  %3 = alloca ptr, align 8
  %4 = alloca ptr, align 8
  store ptr %0, ptr %3, align 8, !tbaa !47
  store ptr %1, ptr %4, align 8, !tbaa !47
  %5 = load ptr, ptr %4, align 8, !tbaa !47
  %6 = load ptr, ptr %3, align 8, !tbaa !47
  %7 = getelementptr inbounds nuw %struct.Aig_Obj_t_, ptr %6, i32 0, i32 6
  %8 = load ptr, ptr %7, align 8, !tbaa !72
  %9 = getelementptr inbounds nuw %struct.Fra_Man_t_, ptr %8, i32 0, i32 6
  %10 = load ptr, ptr %9, align 8, !tbaa !73
  %11 = getelementptr inbounds nuw %struct.Fra_Cla_t_, ptr %10, i32 0, i32 1
  %12 = load ptr, ptr %11, align 8, !tbaa !16
  %13 = load ptr, ptr %3, align 8, !tbaa !47
  %14 = getelementptr inbounds nuw %struct.Aig_Obj_t_, ptr %13, i32 0, i32 5
  %15 = load i32, ptr %14, align 4, !tbaa !50
  %16 = sext i32 %15 to i64
  %17 = getelementptr inbounds ptr, ptr %12, i64 %16
  store ptr %5, ptr %17, align 8, !tbaa !47
  ret void
}

; Function Attrs: inlinehint nounwind uwtable
define internal ptr @Vec_PtrEntry(ptr noundef %0, i32 noundef %1) #4 {
  %3 = alloca ptr, align 8
  %4 = alloca i32, align 4
  store ptr %0, ptr %3, align 8, !tbaa !36
  store i32 %1, ptr %4, align 4, !tbaa !35
  %5 = load ptr, ptr %3, align 8, !tbaa !36
  %6 = getelementptr inbounds nuw %struct.Vec_Ptr_t_, ptr %5, i32 0, i32 2
  %7 = load ptr, ptr %6, align 8, !tbaa !40
  %8 = load i32, ptr %4, align 4, !tbaa !35
  %9 = sext i32 %8 to i64
  %10 = getelementptr inbounds ptr, ptr %7, i64 %9
  %11 = load ptr, ptr %10, align 8, !tbaa !52
  ret ptr %11
}

; Function Attrs: inlinehint nounwind uwtable
define internal i32 @Vec_PtrSize(ptr noundef %0) #4 {
  %2 = alloca ptr, align 8
  store ptr %0, ptr %2, align 8, !tbaa !36
  %3 = load ptr, ptr %2, align 8, !tbaa !36
  %4 = getelementptr inbounds nuw %struct.Vec_Ptr_t_, ptr %3, i32 0, i32 1
  %5 = load i32, ptr %4, align 4, !tbaa !37
  ret i32 %5
}

; Function Attrs: nounwind uwtable
define void @Fra_ClassesSelectRepr(ptr noundef %0) #0 {
  %2 = alloca ptr, align 8
  %3 = alloca ptr, align 8
  %4 = alloca ptr, align 8
  %5 = alloca i32, align 4
  %6 = alloca i32, align 4
  %7 = alloca i32, align 4
  %8 = alloca i32, align 4
  %9 = alloca i32, align 4
  store ptr %0, ptr %2, align 8, !tbaa !8
  call void @llvm.lifetime.start.p0(i64 8, ptr %3) #10
  call void @llvm.lifetime.start.p0(i64 8, ptr %4) #10
  call void @llvm.lifetime.start.p0(i64 4, ptr %5) #10
  call void @llvm.lifetime.start.p0(i64 4, ptr %6) #10
  call void @llvm.lifetime.start.p0(i64 4, ptr %7) #10
  call void @llvm.lifetime.start.p0(i64 4, ptr %8) #10
  call void @llvm.lifetime.start.p0(i64 4, ptr %9) #10
  store i32 0, ptr %5, align 4, !tbaa !35
  br label %10

10:                                               ; preds = %121, %1
  %11 = load i32, ptr %5, align 4, !tbaa !35
  %12 = load ptr, ptr %2, align 8, !tbaa !8
  %13 = getelementptr inbounds nuw %struct.Fra_Cla_t_, ptr %12, i32 0, i32 2
  %14 = load ptr, ptr %13, align 8, !tbaa !17
  %15 = call i32 @Vec_PtrSize(ptr noundef %14)
  %16 = icmp slt i32 %11, %15
  br i1 %16, label %17, label %23

17:                                               ; preds = %10
  %18 = load ptr, ptr %2, align 8, !tbaa !8
  %19 = getelementptr inbounds nuw %struct.Fra_Cla_t_, ptr %18, i32 0, i32 2
  %20 = load ptr, ptr %19, align 8, !tbaa !17
  %21 = load i32, ptr %5, align 4, !tbaa !35
  %22 = call ptr @Vec_PtrEntry(ptr noundef %20, i32 noundef %21)
  store ptr %22, ptr %3, align 8, !tbaa !53
  br label %23

23:                                               ; preds = %17, %10
  %24 = phi i1 [ false, %10 ], [ true, %17 ]
  br i1 %24, label %25, label %124

25:                                               ; preds = %23
  store i32 -1, ptr %7, align 4, !tbaa !35
  store ptr null, ptr %4, align 8, !tbaa !47
  store i32 1000000000, ptr %8, align 4, !tbaa !35
  store i32 0, ptr %6, align 4, !tbaa !35
  br label %26

26:                                               ; preds = %77, %25
  %27 = load ptr, ptr %3, align 8, !tbaa !53
  %28 = load i32, ptr %6, align 4, !tbaa !35
  %29 = sext i32 %28 to i64
  %30 = getelementptr inbounds ptr, ptr %27, i64 %29
  %31 = load ptr, ptr %30, align 8, !tbaa !47
  %32 = icmp ne ptr %31, null
  br i1 %32, label %33, label %80

33:                                               ; preds = %26
  %34 = load ptr, ptr %2, align 8, !tbaa !8
  %35 = getelementptr inbounds nuw %struct.Fra_Cla_t_, ptr %34, i32 0, i32 0
  %36 = load ptr, ptr %35, align 8, !tbaa !10
  %37 = load ptr, ptr %3, align 8, !tbaa !53
  %38 = load i32, ptr %6, align 4, !tbaa !35
  %39 = sext i32 %38 to i64
  %40 = getelementptr inbounds ptr, ptr %37, i64 %39
  %41 = load ptr, ptr %40, align 8, !tbaa !47
  %42 = call i32 @Aig_SupportSize(ptr noundef %36, ptr noundef %41)
  store i32 %42, ptr %9, align 4, !tbaa !35
  %43 = load i32, ptr %8, align 4, !tbaa !35
  %44 = load i32, ptr %9, align 4, !tbaa !35
  %45 = icmp sgt i32 %43, %44
  br i1 %45, label %68, label %46

46:                                               ; preds = %33
  %47 = load i32, ptr %8, align 4, !tbaa !35
  %48 = load i32, ptr %9, align 4, !tbaa !35
  %49 = icmp eq i32 %47, %48
  br i1 %49, label %50, label %76

50:                                               ; preds = %46
  %51 = load ptr, ptr %4, align 8, !tbaa !47
  %52 = getelementptr inbounds nuw %struct.Aig_Obj_t_, ptr %51, i32 0, i32 3
  %53 = load i64, ptr %52, align 8
  %54 = lshr i64 %53, 32
  %55 = and i64 %54, 16777215
  %56 = trunc i64 %55 to i32
  %57 = load ptr, ptr %3, align 8, !tbaa !53
  %58 = load i32, ptr %6, align 4, !tbaa !35
  %59 = sext i32 %58 to i64
  %60 = getelementptr inbounds ptr, ptr %57, i64 %59
  %61 = load ptr, ptr %60, align 8, !tbaa !47
  %62 = getelementptr inbounds nuw %struct.Aig_Obj_t_, ptr %61, i32 0, i32 3
  %63 = load i64, ptr %62, align 8
  %64 = lshr i64 %63, 32
  %65 = and i64 %64, 16777215
  %66 = trunc i64 %65 to i32
  %67 = icmp sgt i32 %56, %66
  br i1 %67, label %68, label %76

68:                                               ; preds = %50, %33
  %69 = load i32, ptr %9, align 4, !tbaa !35
  store i32 %69, ptr %8, align 4, !tbaa !35
  %70 = load ptr, ptr %3, align 8, !tbaa !53
  %71 = load i32, ptr %6, align 4, !tbaa !35
  %72 = sext i32 %71 to i64
  %73 = getelementptr inbounds ptr, ptr %70, i64 %72
  %74 = load ptr, ptr %73, align 8, !tbaa !47
  store ptr %74, ptr %4, align 8, !tbaa !47
  %75 = load i32, ptr %6, align 4, !tbaa !35
  store i32 %75, ptr %7, align 4, !tbaa !35
  br label %76

76:                                               ; preds = %68, %50, %46
  br label %77

77:                                               ; preds = %76
  %78 = load i32, ptr %6, align 4, !tbaa !35
  %79 = add nsw i32 %78, 1
  store i32 %79, ptr %6, align 4, !tbaa !35
  br label %26, !llvm.loop !102

80:                                               ; preds = %26
  %81 = load i32, ptr %7, align 4, !tbaa !35
  %82 = icmp eq i32 %81, 0
  br i1 %82, label %83, label %84

83:                                               ; preds = %80
  br label %121

84:                                               ; preds = %80
  %85 = load ptr, ptr %3, align 8, !tbaa !53
  %86 = getelementptr inbounds ptr, ptr %85, i64 0
  %87 = load ptr, ptr %86, align 8, !tbaa !47
  %88 = load ptr, ptr %3, align 8, !tbaa !53
  %89 = load i32, ptr %7, align 4, !tbaa !35
  %90 = sext i32 %89 to i64
  %91 = getelementptr inbounds ptr, ptr %88, i64 %90
  store ptr %87, ptr %91, align 8, !tbaa !47
  %92 = load ptr, ptr %4, align 8, !tbaa !47
  %93 = load ptr, ptr %3, align 8, !tbaa !53
  %94 = getelementptr inbounds ptr, ptr %93, i64 0
  store ptr %92, ptr %94, align 8, !tbaa !47
  store i32 0, ptr %6, align 4, !tbaa !35
  br label %95

95:                                               ; preds = %117, %84
  %96 = load ptr, ptr %3, align 8, !tbaa !53
  %97 = load i32, ptr %6, align 4, !tbaa !35
  %98 = sext i32 %97 to i64
  %99 = getelementptr inbounds ptr, ptr %96, i64 %98
  %100 = load ptr, ptr %99, align 8, !tbaa !47
  %101 = icmp ne ptr %100, null
  br i1 %101, label %102, label %120

102:                                              ; preds = %95
  %103 = load ptr, ptr %3, align 8, !tbaa !53
  %104 = load i32, ptr %6, align 4, !tbaa !35
  %105 = sext i32 %104 to i64
  %106 = getelementptr inbounds ptr, ptr %103, i64 %105
  %107 = load ptr, ptr %106, align 8, !tbaa !47
  %108 = load i32, ptr %6, align 4, !tbaa !35
  %109 = icmp ne i32 %108, 0
  br i1 %109, label %110, label %114

110:                                              ; preds = %102
  %111 = load ptr, ptr %3, align 8, !tbaa !53
  %112 = getelementptr inbounds ptr, ptr %111, i64 0
  %113 = load ptr, ptr %112, align 8, !tbaa !47
  br label %115

114:                                              ; preds = %102
  br label %115

115:                                              ; preds = %114, %110
  %116 = phi ptr [ %113, %110 ], [ null, %114 ]
  call void @Fra_ClassObjSetRepr(ptr noundef %107, ptr noundef %116)
  br label %117

117:                                              ; preds = %115
  %118 = load i32, ptr %6, align 4, !tbaa !35
  %119 = add nsw i32 %118, 1
  store i32 %119, ptr %6, align 4, !tbaa !35
  br label %95, !llvm.loop !103

120:                                              ; preds = %95
  br label %121

121:                                              ; preds = %120, %83
  %122 = load i32, ptr %5, align 4, !tbaa !35
  %123 = add nsw i32 %122, 1
  store i32 %123, ptr %5, align 4, !tbaa !35
  br label %10, !llvm.loop !104

124:                                              ; preds = %23
  call void @llvm.lifetime.end.p0(i64 4, ptr %9) #10
  call void @llvm.lifetime.end.p0(i64 4, ptr %8) #10
  call void @llvm.lifetime.end.p0(i64 4, ptr %7) #10
  call void @llvm.lifetime.end.p0(i64 4, ptr %6) #10
  call void @llvm.lifetime.end.p0(i64 4, ptr %5) #10
  call void @llvm.lifetime.end.p0(i64 8, ptr %4) #10
  call void @llvm.lifetime.end.p0(i64 8, ptr %3) #10
  ret void
}