; Function Attrs: nounwind uwtable
define void @Fra_ClassesSelectRepr(ptr noundef readonly captures(none) %0) local_unnamed_addr #6 {
  %2 = getelementptr inbounds nuw i8, ptr %0, i64 16
  %3 = load ptr, ptr %2, align 8, !tbaa !28
  %4 = getelementptr i8, ptr %3, i64 4
  %.val59 = load i32, ptr %4, align 4, !tbaa !23
  %5 = icmp sgt i32 %.val59, 0
  br i1 %5, label %.lr.ph62, label %.critedge

.lr.ph62:                                         ; preds = %1, %.loopexit
  %indvars.iv67 = phi i64 [ %indvars.iv.next68, %.loopexit ], [ 0, %1 ]
  %6 = phi ptr [ %57, %.loopexit ], [ %3, %1 ]
  %7 = getelementptr i8, ptr %6, i64 8
  %.val46 = load ptr, ptr %7, align 8, !tbaa !27
  %8 = getelementptr inbounds nuw ptr, ptr %.val46, i64 %indvars.iv67
  %9 = load ptr, ptr %8, align 8, !tbaa !41
  %10 = load ptr, ptr %9, align 8, !tbaa !42
  %.not49 = icmp eq ptr %10, null
  br i1 %.not49, label %.thread, label %.lr.ph

.thread:                                          ; preds = %.lr.ph62
  %11 = load ptr, ptr %9, align 8, !tbaa !42
  %12 = getelementptr inbounds i8, ptr %9, i64 -8
  store ptr %11, ptr %12, align 8, !tbaa !42
  br label %.loopexit

.lr.ph:                                           ; preds = %.lr.ph62, %36
  %indvars.iv = phi i64 [ %indvars.iv.next, %36 ], [ 0, %.lr.ph62 ]
  %13 = phi ptr [ %38, %36 ], [ %10, %.lr.ph62 ]
  %.053 = phi ptr [ %.1, %36 ], [ null, %.lr.ph62 ]
  %.03452 = phi i32 [ %.135, %36 ], [ 1000000000, %.lr.ph62 ]
  %.03651 = phi i32 [ %.137, %36 ], [ -1, %.lr.ph62 ]
  %14 = getelementptr inbounds nuw ptr, ptr %9, i64 %indvars.iv
  %15 = load ptr, ptr %0, align 8, !tbaa !3
  %16 = tail call i32 @Aig_SupportSize(ptr noundef %15, ptr noundef nonnull %13) #18
  %17 = icmp sgt i32 %.03452, %16
  br i1 %17, label %.lr.ph._crit_edge, label %18

.lr.ph._crit_edge:                                ; preds = %.lr.ph
  %.pre = load ptr, ptr %14, align 8, !tbaa !42
  br label %33

18:                                               ; preds = %.lr.ph
  %19 = icmp eq i32 %.03452, %16
  br i1 %19, label %20, label %36

20:                                               ; preds = %18
  %21 = getelementptr inbounds nuw i8, ptr %.053, i64 24
  %22 = load i64, ptr %21, align 8
  %23 = lshr i64 %22, 32
  %24 = trunc nuw i64 %23 to i32
  %25 = and i32 %24, 16777215
  %26 = load ptr, ptr %14, align 8, !tbaa !42
  %27 = getelementptr inbounds nuw i8, ptr %26, i64 24
  %28 = load i64, ptr %27, align 8
  %29 = lshr i64 %28, 32
  %30 = trunc nuw i64 %29 to i32
  %31 = and i32 %30, 16777215
  %32 = icmp samesign ugt i32 %25, %31
  br i1 %32, label %33, label %36

33:                                               ; preds = %.lr.ph._crit_edge, %20
  %34 = phi ptr [ %.pre, %.lr.ph._crit_edge ], [ %26, %20 ]
  %35 = trunc nuw nsw i64 %indvars.iv to i32
  br label %36

36:                                               ; preds = %18, %20, %33
  %.137 = phi i32 [ %35, %33 ], [ %.03651, %20 ], [ %.03651, %18 ]
  %.135 = phi i32 [ %16, %33 ], [ %.03452, %20 ], [ %.03452, %18 ]
  %.1 = phi ptr [ %34, %33 ], [ %.053, %20 ], [ %.053, %18 ]
  %indvars.iv.next = add nuw nsw i64 %indvars.iv, 1
  %37 = getelementptr inbounds nuw ptr, ptr %9, i64 %indvars.iv.next
  %38 = load ptr, ptr %37, align 8, !tbaa !42
  %.not = icmp eq ptr %38, null
  br i1 %.not, label %._crit_edge, label %.lr.ph, !llvm.loop !92

._crit_edge:                                      ; preds = %36
  %39 = icmp eq i32 %.137, 0
  br i1 %39, label %.loopexit, label %40

40:                                               ; preds = %._crit_edge
  %41 = load ptr, ptr %9, align 8, !tbaa !42
  %42 = sext i32 %.137 to i64
  %43 = getelementptr inbounds ptr, ptr %9, i64 %42
  store ptr %41, ptr %43, align 8, !tbaa !42
  store ptr %.1, ptr %9, align 8, !tbaa !42
  %.not4455 = icmp eq ptr %.1, null
  br i1 %.not4455, label %.loopexit, label %.lr.ph58

.lr.ph58:                                         ; preds = %40, %47
  %indvars.iv64 = phi i64 [ %indvars.iv.next65, %47 ], [ 0, %40 ]
  %44 = phi ptr [ %56, %47 ], [ %.1, %40 ]
  %.not45 = icmp eq i64 %indvars.iv64, 0
  br i1 %.not45, label %47, label %45

45:                                               ; preds = %.lr.ph58
  %46 = load ptr, ptr %9, align 8, !tbaa !42
  br label %47

47:                                               ; preds = %.lr.ph58, %45
  %48 = phi ptr [ %46, %45 ], [ null, %.lr.ph58 ]
  %49 = getelementptr i8, ptr %44, i64 36
  %.val47 = load i32, ptr %49, align 4, !tbaa !45
  %50 = getelementptr i8, ptr %44, i64 40
  %.val48 = load ptr, ptr %50, align 8, !tbaa !57
  %51 = getelementptr i8, ptr %.val48, i64 48
  %.val48.val = load ptr, ptr %51, align 8, !tbaa !58
  %52 = getelementptr i8, ptr %.val48.val, i64 8
  %.val48.val.val = load ptr, ptr %52, align 8, !tbaa !25
  %53 = sext i32 %.val47 to i64
  %54 = getelementptr inbounds ptr, ptr %.val48.val.val, i64 %53
  store ptr %48, ptr %54, align 8, !tbaa !42
  %indvars.iv.next65 = add nuw nsw i64 %indvars.iv64, 1
  %55 = getelementptr inbounds nuw ptr, ptr %9, i64 %indvars.iv.next65
  %56 = load ptr, ptr %55, align 8, !tbaa !42
  %.not44 = icmp eq ptr %56, null
  br i1 %.not44, label %.loopexit, label %.lr.ph58, !llvm.loop !93

.loopexit:                                        ; preds = %47, %.thread, %40, %._crit_edge
  %indvars.iv.next68 = add nuw nsw i64 %indvars.iv67, 1
  %57 = load ptr, ptr %2, align 8, !tbaa !28
  %58 = getelementptr i8, ptr %57, i64 4
  %.val = load i32, ptr %58, align 4, !tbaa !23
  %59 = sext i32 %.val to i64
  %60 = icmp slt i64 %indvars.iv.next68, %59
  br i1 %60, label %.lr.ph62, label %.critedge, !llvm.loop !94

.critedge:                                        ; preds = %.loopexit, %1
  ret void
}